target datalayout = "e-m:e-p270:32:32-p271:32:32-p272:64:64-i64:64-i128:128-f80:128-n8:16:32:64-S128"
target triple = "x86_64-pc-linux-gnu"

; Function Attrs: nounwind uwtable
define hidden ptr @magic_buffer(ptr noundef %0, ptr noundef %1, i64 noundef %2) #0 {
  %4 = alloca ptr, align 8
  %5 = alloca ptr, align 8
  %6 = alloca ptr, align 8
  %7 = alloca i64, align 8
  store ptr %0, ptr %5, align 8
  store ptr %1, ptr %6, align 8
  store i64 %2, ptr %7, align 8
  %8 = load ptr, ptr %5, align 8
  %9 = icmp eq ptr %8, null
  br i1 %9, label %10, label %11

10:                                               ; preds = %3
  store ptr null, ptr %4, align 8
  br label %26

11:                                               ; preds = %3
  %12 = load ptr, ptr %5, align 8
  %13 = call i32 @file_reset(ptr noundef %12, i32 noundef 1)
  %14 = icmp eq i32 %13, -1
  br i1 %14, label %15, label %16

15:                                               ; preds = %11
  store ptr null, ptr %4, align 8
  br label %26

16:                                               ; preds = %11
  %17 = load ptr, ptr %5, align 8
  %18 = load ptr, ptr %6, align 8
  %19 = load i64, ptr %7, align 8
  %20 = call i32 @file_buffer(ptr noundef %17, ptr noundef null, ptr noundef null, ptr noundef null, ptr noundef %18, i64 noundef %19)
  %21 = icmp eq i32 %20, -1
  br i1 %21, label %22, label %23

22:                                               ; preds = %16
  store ptr null, ptr %4, align 8
  br label %26

23:                                               ; preds = %16
  %24 = load ptr, ptr %5, align 8
  %25 = call ptr @file_getbuffer(ptr noundef %24)
  store ptr %25, ptr %4, align 8
  br label %26

26:                                               ; preds = %23, %22, %15, %10
  %27 = load ptr, ptr %4, align 8
  ret ptr %27
}