; Function Attrs: nounwind uwtable
define hidden ptr @magic_buffer(ptr noundef %0, ptr noundef %1, i64 noundef %2) local_unnamed_addr #0 {
  %4 = icmp eq ptr %0, null
  br i1 %4, label %13, label %5

5:                                                ; preds = %3
  %6 = tail call i32 @file_reset(ptr noundef nonnull %0, i32 noundef 1) #11
  %7 = icmp eq i32 %6, -1
  br i1 %7, label %13, label %8

8:                                                ; preds = %5
  %9 = tail call i32 @file_buffer(ptr noundef nonnull %0, ptr noundef null, ptr noundef null, ptr noundef null, ptr noundef %1, i64 noundef %2) #11
  %10 = icmp eq i32 %9, -1
  br i1 %10, label %13, label %11

11:                                               ; preds = %8
  %12 = tail call ptr @file_getbuffer(ptr noundef nonnull %0) #11
  br label %13

13:                                               ; preds = %8, %5, %3, %11
  %.0 = phi ptr [ %12, %11 ], [ null, %3 ], [ null, %5 ], [ null, %8 ]
  ret ptr %.0
}